target datalayout = "e-m:e-p270:32:32-p271:32:32-p272:64:64-i64:64-i128:128-f80:128-n8:16:32:64-S128"
target triple = "x86_64-pc-linux-gnu"

%struct.Gia_Man_t_ = type { ptr, ptr, i32, i32, i32, i32, ptr, ptr, i32, i32, i32, ptr, ptr, %struct.Vec_Int_t_, %struct.Vec_Int_t_, i32, i32, i32, %struct.Vec_Int_t_, ptr, ptr, ptr, i32, i32, i32, i32, ptr, ptr, ptr, ptr, ptr, i32, i32, ptr, i32, ptr, ptr, ptr, ptr, ptr, ptr, ptr, ptr, ptr, ptr, ptr, ptr, ptr, ptr, ptr, ptr, ptr, ptr, %struct.Vec_Int_t_, %struct.Vec_Int_t_, ptr, ptr, ptr, ptr, ptr, ptr, ptr, ptr, ptr, ptr, ptr, ptr, ptr, ptr, ptr, ptr, ptr, ptr, ptr, ptr, ptr, i32, float, float, ptr, ptr, i32, ptr, ptr, ptr, ptr, ptr, ptr, ptr, ptr, ptr, ptr, ptr, ptr, ptr, ptr, ptr, i64, i64, ptr, ptr, i32, i32, i32, i32, i32, i32, i32, i32, i32, i32, i32, i32, ptr, ptr, ptr, ptr, ptr, ptr, ptr, ptr, i32, i32, i32, ptr, i32, i32, ptr, ptr, ptr, ptr, ptr, ptr, i32, i32, ptr, %struct.Vec_Int_t_, %struct.Vec_Int_t_, %struct.Vec_Int_t_, ptr, ptr, ptr }
%struct.Vec_Int_t_ = type { i32, i32, ptr }
%struct.Gia_Obj_t_ = type <{ i64, i32 }>

; Function Attrs: nounwind uwtable
define internal i32 @Abc_LitNotCond(i32 noundef %0, i32 noundef %1) #0 {
  %3 = alloca i32, align 4
  %4 = alloca i32, align 4
  store i32 %0, ptr %3, align 4
  store i32 %1, ptr %4, align 4
  %5 = load i32, ptr %3, align 4
  %6 = load i32, ptr %4, align 4
  %7 = icmp sgt i32 %6, 0
  %8 = zext i1 %7 to i32
  %9 = xor i32 %5, %8
  ret i32 %9
}

; Function Attrs: nounwind uwtable
define internal i32 @Abc_LitIsCompl(i32 noundef %0) #0 {
  %2 = alloca i32, align 4
  store i32 %0, ptr %2, align 4
  %3 = load i32, ptr %2, align 4
  %4 = and i32 %3, 1
  ret i32 %4
}

; Function Attrs: nounwind uwtable
define internal void @Vec_IntWriteEntry(ptr noundef %0, i32 noundef %1, i32 noundef %2) #0 {
  %4 = alloca ptr, align 8
  %5 = alloca i32, align 4
  %6 = alloca i32, align 4
  store ptr %0, ptr %4, align 8
  store i32 %1, ptr %5, align 4
  store i32 %2, ptr %6, align 4
  %7 = load i32, ptr %6, align 4
  %8 = load ptr, ptr %4, align 8
  %9 = getelementptr inbounds %struct.Vec_Int_t_, ptr %8, i32 0, i32 2
  %10 = load ptr, ptr %9, align 8
  %11 = load i32, ptr %5, align 4
  %12 = sext i32 %11 to i64
  %13 = getelementptr inbounds i32, ptr %10, i64 %12
  store i32 %7, ptr %13, align 4
  ret void
}

; Function Attrs: nounwind uwtable
define internal ptr @Gia_ManObj(ptr noundef %0, i32 noundef %1) #0 {
  %3 = alloca ptr, align 8
  %4 = alloca i32, align 4
  store ptr %0, ptr %3, align 8
  store i32 %1, ptr %4, align 4
  %5 = load ptr, ptr %3, align 8
  %6 = getelementptr inbounds %struct.Gia_Man_t_, ptr %5, i32 0, i32 6
  %7 = load ptr, ptr %6, align 8
  %8 = load i32, ptr %4, align 4
  %9 = sext i32 %8 to i64
  %10 = getelementptr inbounds %struct.Gia_Obj_t_, ptr %7, i64 %9
  ret ptr %10
}

; Function Attrs: nounwind uwtable
define internal i32 @Abc_Lit2Var(i32 noundef %0) #0 {
  %2 = alloca i32, align 4
  store i32 %0, ptr %2, align 4
  %3 = load i32, ptr %2, align 4
  %4 = ashr i32 %3, 1
  ret i32 %4
}

; Function Attrs: nounwind uwtable
define internal i32 @Vec_IntEntry(ptr noundef %0, i32 noundef %1) #0 {
  %3 = alloca ptr, align 8
  %4 = alloca i32, align 4
  store ptr %0, ptr %3, align 8
  store i32 %1, ptr %4, align 4
  %5 = load ptr, ptr %3, align 8
  %6 = getelementptr inbounds %struct.Vec_Int_t_, ptr %5, i32 0, i32 2
  %7 = load ptr, ptr %6, align 8
  %8 = load i32, ptr %4, align 4
  %9 = sext i32 %8 to i64
  %10 = getelementptr inbounds i32, ptr %7, i64 %9
  %11 = load i32, ptr %10, align 4
  ret i32 %11
}

; Function Attrs: nounwind uwtable
define internal i32 @Vec_IntSize(ptr noundef %0) #0 {
  %2 = alloca ptr, align 8
  store ptr %0, ptr %2, align 8
  %3 = load ptr, ptr %2, align 8
  %4 = getelementptr inbounds %struct.Vec_Int_t_, ptr %3, i32 0, i32 1
  %5 = load i32, ptr %4, align 4
  ret i32 %5
}

; Function Attrs: nounwind uwtable
define void @Gia_ManUpdateCopy(ptr noundef %0, ptr noundef %1) #0 {
  %3 = alloca ptr, align 8
  %4 = alloca ptr, align 8
  %5 = alloca ptr, align 8
  %6 = alloca i32, align 4
  %7 = alloca i32, align 4
  store ptr %0, ptr %3, align 8
  store ptr %1, ptr %4, align 8
  store i32 0, ptr %6, align 4
  br label %8

8:                                                ; preds = %46, %2
  %9 = load i32, ptr %6, align 4
  %10 = load ptr, ptr %3, align 8
  %11 = call i32 @Vec_IntSize(ptr noundef %10)
  %12 = icmp slt i32 %9, %11
  br i1 %12, label %13, label %17

13:                                               ; preds = %8
  %14 = load ptr, ptr %3, align 8
  %15 = load i32, ptr %6, align 4
  %16 = call i32 @Vec_IntEntry(ptr noundef %14, i32 noundef %15)
  store i32 %16, ptr %7, align 4
  br label %17

17:                                               ; preds = %13, %8
  %18 = phi i1 [ false, %8 ], [ true, %13 ]
  br i1 %18, label %19, label %49

19:                                               ; preds = %17
  %20 = load i32, ptr %7, align 4
  %21 = icmp eq i32 %20, -1
  br i1 %21, label %22, label %23

22:                                               ; preds = %19
  br label %46

23:                                               ; preds = %19
  %24 = load ptr, ptr %4, align 8
  %25 = load i32, ptr %7, align 4
  %26 = call i32 @Abc_Lit2Var(i32 noundef %25)
  %27 = call ptr @Gia_ManObj(ptr noundef %24, i32 noundef %26)
  store ptr %27, ptr %5, align 8
  %28 = load ptr, ptr %5, align 8
  %29 = getelementptr inbounds %struct.Gia_Obj_t_, ptr %28, i32 0, i32 1
  %30 = load i32, ptr %29, align 4
  %31 = xor i32 %30, -1
  %32 = icmp ne i32 %31, 0
  br i1 %32, label %36, label %33

33:                                               ; preds = %23
  %34 = load ptr, ptr %3, align 8
  %35 = load i32, ptr %6, align 4
  call void @Vec_IntWriteEntry(ptr noundef %34, i32 noundef %35, i32 noundef -1)
  br label %45

36:                                               ; preds = %23
  %37 = load ptr, ptr %3, align 8
  %38 = load i32, ptr %6, align 4
  %39 = load ptr, ptr %5, align 8
  %40 = getelementptr inbounds %struct.Gia_Obj_t_, ptr %39, i32 0, i32 1
  %41 = load i32, ptr %40, align 4
  %42 = load i32, ptr %7, align 4
  %43 = call i32 @Abc_LitIsCompl(i32 noundef %42)
  %44 = call i32 @Abc_LitNotCond(i32 noundef %41, i32 noundef %43)
  call void @Vec_IntWriteEntry(ptr noundef %37, i32 noundef %38, i32 noundef %44)
  br label %45

45:                                               ; preds = %36, %33
  br label %46

46:                                               ; preds = %45, %22
  %47 = load i32, ptr %6, align 4
  %48 = add nsw i32 %47, 1
  store i32 %48, ptr %6, align 4
  br label %8, !llvm.loop !99

49:                                               ; preds = %17
  ret void
}