; Function Attrs: nofree norecurse nosync nounwind memory(readwrite, inaccessiblemem: none) uwtable
define void @Gia_ManUpdateCopy(ptr noundef readonly captures(none) %0, ptr noundef readonly captures(none) %1) local_unnamed_addr #1 {
  %3 = getelementptr i8, ptr %0, i64 4
  %.val1619 = load i32, ptr %3, align 4
  %4 = icmp sgt i32 %.val1619, 0
  br i1 %4, label %.lr.ph, label %.critedge

.lr.ph:                                           ; preds = %2
  %5 = getelementptr i8, ptr %0, i64 8
  %6 = getelementptr i8, ptr %1, i64 32
  br label %7

7:                                                ; preds = %.lr.ph, %17
  %indvars.iv = phi i64 [ 0, %.lr.ph ], [ %indvars.iv.next, %17 ]
  %.val15 = load ptr, ptr %5, align 8
  %8 = getelementptr inbounds nuw i32, ptr %.val15, i64 %indvars.iv
  %9 = load i32, ptr %8, align 4
  %10 = icmp eq i32 %9, -1
  br i1 %10, label %17, label %.sink.split

.sink.split:                                      ; preds = %7
  %11 = ashr i32 %9, 1
  %.val = load ptr, ptr %6, align 8
  %12 = sext i32 %11 to i64
  %13 = getelementptr inbounds %struct.Gia_Obj_t_, ptr %.val, i64 %12, i32 1
  %14 = load i32, ptr %13, align 4
  %.not = icmp eq i32 %14, -1
  %15 = and i32 %9, 1
  %16 = xor i32 %14, %15
  %.sink = select i1 %.not, i32 -1, i32 %16
  store i32 %.sink, ptr %8, align 4
  br label %17

17:                                               ; preds = %.sink.split, %7
  %indvars.iv.next = add nuw nsw i64 %indvars.iv, 1
  %.val16 = load i32, ptr %3, align 4
  %18 = sext i32 %.val16 to i64
  %19 = icmp slt i64 %indvars.iv.next, %18
  br i1 %19, label %7, label %.critedge, !llvm.loop !97

.critedge:                                        ; preds = %17, %2
  ret void
}